; ModuleID = '10/1679.c'
source_filename = "10/1679.c"
target datalayout = "e-m:e-p270:32:32-p271:32:32-p272:64:64-i64:64-f80:128-n8:16:32:64-S128"
target triple = "x86_64-pc-linux-gnu"

@.str = private unnamed_addr constant [3 x i8] c"%d\00", align 1
@.str.1 = private unnamed_addr constant [4 x i8] c"%d\0A\00", align 1

; Function Attrs: noinline nounwind uwtable
define dso_local void @main() #0 {
  %1 = alloca i32, align 4
  %2 = alloca [30 x i32], align 16
  %3 = alloca i32, align 4
  %4 = alloca [30 x i32], align 16
  %5 = alloca i32, align 4
  %6 = call i32 (i8*, ...) @__isoc99_scanf(i8* getelementptr inbounds ([3 x i8], [3 x i8]* @.str, i64 0, i64 0), i32* %1)
  store i32 0, i32* %3, align 4
  br label %7

7:                                                ; preds = %19, %0
  %8 = load i32, i32* %3, align 4
  %9 = load i32, i32* %1, align 4
  %10 = icmp slt i32 %8, %9
  br i1 %10, label %11, label %22

11:                                               ; preds = %7
  %12 = load i32, i32* %3, align 4
  %13 = sext i32 %12 to i64
  %14 = getelementptr inbounds [30 x i32], [30 x i32]* %2, i64 0, i64 %13
  %15 = call i32 (i8*, ...) @__isoc99_scanf(i8* getelementptr inbounds ([3 x i8], [3 x i8]* @.str, i64 0, i64 0), i32* %14)
  %16 = load i32, i32* %3, align 4
  %17 = sext i32 %16 to i64
  %18 = getelementptr inbounds [30 x i32], [30 x i32]* %4, i64 0, i64 %17
  store i32 1, i32* %18, align 4
  br label %19

19:                                               ; preds = %11
  %20 = load i32, i32* %3, align 4
  %21 = add nsw i32 %20, 1
  store i32 %21, i32* %3, align 4
  br label %7

22:                                               ; preds = %7
  store i32 0, i32* %3, align 4
  br label %23

23:                                               ; preds = %67, %22
  %24 = load i32, i32* %3, align 4
  %25 = load i32, i32* %1, align 4
  %26 = icmp slt i32 %24, %25
  br i1 %26, label %27, label %70

27:                                               ; preds = %23
  store i32 0, i32* %5, align 4
  br label %28

28:                                               ; preds = %63, %27
  %29 = load i32, i32* %5, align 4
  %30 = load i32, i32* %3, align 4
  %31 = icmp slt i32 %29, %30
  br i1 %31, label %32, label %66

32:                                               ; preds = %28
  %33 = load i32, i32* %5, align 4
  %34 = sext i32 %33 to i64
  %35 = getelementptr inbounds [30 x i32], [30 x i32]* %2, i64 0, i64 %34
  %36 = load i32, i32* %35, align 4
  %37 = load i32, i32* %3, align 4
  %38 = sext i32 %37 to i64
  %39 = getelementptr inbounds [30 x i32], [30 x i32]* %2, i64 0, i64 %38
  %40 = load i32, i32* %39, align 4
  %41 = icmp sge i32 %36, %40
  br i1 %41, label %42, label %62

42:                                               ; preds = %32
  %43 = load i32, i32* %5, align 4
  %44 = sext i32 %43 to i64
  %45 = getelementptr inbounds [30 x i32], [30 x i32]* %4, i64 0, i64 %44
  %46 = load i32, i32* %45, align 4
  %47 = load i32, i32* %3, align 4
  %48 = sext i32 %47 to i64
  %49 = getelementptr inbounds [30 x i32], [30 x i32]* %4, i64 0, i64 %48
  %50 = load i32, i32* %49, align 4
  %51 = icmp sge i32 %46, %50
  br i1 %51, label %52, label %61

52:                                               ; preds = %42
  %53 = load i32, i32* %5, align 4
  %54 = sext i32 %53 to i64
  %55 = getelementptr inbounds [30 x i32], [30 x i32]* %4, i64 0, i64 %54
  %56 = load i32, i32* %55, align 4
  %57 = add nsw i32 %56, 1
  %58 = load i32, i32* %3, align 4
  %59 = sext i32 %58 to i64
  %60 = getelementptr inbounds [30 x i32], [30 x i32]* %4, i64 0, i64 %59
  store i32 %57, i32* %60, align 4
  br label %61

61:                                               ; preds = %52, %42
  br label %62

62:                                               ; preds = %61, %32
  br label %63

63:                                               ; preds = %62
  %64 = load i32, i32* %5, align 4
  %65 = add nsw i32 %64, 1
  store i32 %65, i32* %5, align 4
  br label %28

66:                                               ; preds = %28
  br label %67

67:                                               ; preds = %66
  %68 = load i32, i32* %3, align 4
  %69 = add nsw i32 %68, 1
  store i32 %69, i32* %3, align 4
  br label %23

70:                                               ; preds = %23
  store i32 0, i32* %5, align 4
  br label %71

71:                                               ; preds = %97, %70
  %72 = load i32, i32* %5, align 4
  %73 = load i32, i32* %1, align 4
  %74 = sub nsw i32 %73, 1
  %75 = icmp slt i32 %72, %74
  br i1 %75, label %76, label %100

76:                                               ; preds = %71
  %77 = load i32, i32* %5, align 4
  %78 = sext i32 %77 to i64
  %79 = getelementptr inbounds [30 x i32], [30 x i32]* %4, i64 0, i64 %78
  %80 = load i32, i32* %79, align 4
  %81 = load i32, i32* %5, align 4
  %82 = add nsw i32 %81, 1
  %83 = sext i32 %82 to i64
  %84 = getelementptr inbounds [30 x i32], [30 x i32]* %4, i64 0, i64 %83
  %85 = load i32, i32* %84, align 4
  %86 = icmp sgt i32 %80, %85
  br i1 %86, label %87, label %96

87:                                               ; preds = %76
  %88 = load i32, i32* %5, align 4
  %89 = sext i32 %88 to i64
  %90 = getelementptr inbounds [30 x i32], [30 x i32]* %4, i64 0, i64 %89
  %91 = load i32, i32* %90, align 4
  %92 = load i32, i32* %5, align 4
  %93 = add nsw i32 %92, 1
  %94 = sext i32 %93 to i64
  %95 = getelementptr inbounds [30 x i32], [30 x i32]* %4, i64 0, i64 %94
  store i32 %91, i32* %95, align 4
  br label %96

96:                                               ; preds = %87, %76
  br label %97

97:                                               ; preds = %96
  %98 = load i32, i32* %5, align 4
  %99 = add nsw i32 %98, 1
  store i32 %99, i32* %5, align 4
  br label %71

100:                                              ; preds = %71
  %101 = load i32, i32* %1, align 4
  %102 = sub nsw i32 %101, 1
  %103 = sext i32 %102 to i64
  %104 = getelementptr inbounds [30 x i32], [30 x i32]* %4, i64 0, i64 %103
  %105 = load i32, i32* %104, align 4
  %106 = call i32 (i8*, ...) @printf(i8* getelementptr inbounds ([4 x i8], [4 x i8]* @.str.1, i64 0, i64 0), i32 %105)
  ret void
}

declare dso_local i32 @__isoc99_scanf(i8*, ...) #1

declare dso_local i32 @printf(i8*, ...) #1


!llvm.module.flags = !{!0}
!llvm.ident = !{!1}

!0 = !{i32 1, !"wchar_size", i32 4}
!1 = !{!"clang version 10.0.0-4ubuntu1 "}
